target datalayout = "e-m:e-p270:32:32-p271:32:32-p272:64:64-i64:64-i128:128-f80:128-n8:16:32:64-S128"
target triple = "x86_64-unknown-linux-gnu"

%struct.RAMBlock = type { %struct.rcu_head, ptr, ptr, ptr, i64, i64, i64, ptr, i32, [256 x i8], %struct.anon.2, %struct.anon.3, i32, i64, i64, ptr, ptr, ptr, i8, i64 }
%struct.rcu_head = type { ptr, ptr }
%struct.anon.2 = type { ptr, ptr }
%struct.anon.3 = type { ptr }
%struct.PageSearchStatus = type { ptr, ptr, ptr, i64, i8, i8, i64, i64 }

@.str = private unnamed_addr constant [24 x i8] c"../qemu/migration/ram.c\00", align 1
@.str.43 = private unnamed_addr constant [19 x i8] c"pss->host_page_end\00", align 1
@__PRETTY_FUNCTION__.pss_find_next_dirty = private unnamed_addr constant [45 x i8] c"void pss_find_next_dirty(PageSearchStatus *)\00", align 1

; Function Attrs: nounwind sspstrong uwtable
define dso_local zeroext i1 @migrate_ram_is_ignored(ptr noundef %block) #0 {
entry:
  %block.addr = alloca ptr, align 8
  store ptr %block, ptr %block.addr, align 8
  %0 = load ptr, ptr %block.addr, align 8
  %call = call zeroext i1 @qemu_ram_is_migratable(ptr noundef %0)
  br i1 %call, label %lor.rhs, label %lor.end

lor.rhs:                                          ; preds = %entry
  %call1 = call zeroext i1 @migrate_ignore_shared()
  br i1 %call1, label %land.lhs.true, label %land.end

land.lhs.true:                                    ; preds = %lor.rhs
  %1 = load ptr, ptr %block.addr, align 8
  %call2 = call zeroext i1 @qemu_ram_is_shared(ptr noundef %1)
  br i1 %call2, label %land.rhs, label %land.end

land.rhs:                                         ; preds = %land.lhs.true
  %2 = load ptr, ptr %block.addr, align 8
  %call3 = call zeroext i1 @qemu_ram_is_named_file(ptr noundef %2)
  br label %land.end

land.end:                                         ; preds = %land.rhs, %land.lhs.true, %lor.rhs
  %3 = phi i1 [ false, %land.lhs.true ], [ false, %lor.rhs ], [ %call3, %land.rhs ]
  br label %lor.end

lor.end:                                          ; preds = %land.end, %entry
  %4 = phi i1 [ true, %entry ], [ %3, %land.end ]
  ret i1 %4
}

; Function Attrs: nounwind sspstrong uwtable
define internal void @pss_find_next_dirty(ptr noundef %pss) #0 {
entry:
  %pss.addr = alloca ptr, align 8
  %rb = alloca ptr, align 8
  %size = alloca i64, align 8
  %bitmap = alloca ptr, align 8
  %_a28 = alloca i64, align 8
  %_b29 = alloca i64, align 8
  %tmp = alloca i64, align 8
  store ptr %pss, ptr %pss.addr, align 8
  %0 = load ptr, ptr %pss.addr, align 8
  %block = getelementptr inbounds %struct.PageSearchStatus, ptr %0, i32 0, i32 2
  %1 = load ptr, ptr %block, align 8
  store ptr %1, ptr %rb, align 8
  %2 = load ptr, ptr %rb, align 8
  %used_length = getelementptr inbounds %struct.RAMBlock, ptr %2, i32 0, i32 5
  %3 = load i64, ptr %used_length, align 8
  %shr = lshr i64 %3, 12
  store i64 %shr, ptr %size, align 8
  %4 = load ptr, ptr %rb, align 8
  %bmap = getelementptr inbounds %struct.RAMBlock, ptr %4, i32 0, i32 15
  %5 = load ptr, ptr %bmap, align 8
  store ptr %5, ptr %bitmap, align 8
  %6 = load ptr, ptr %rb, align 8
  %call = call zeroext i1 @migrate_ram_is_ignored(ptr noundef %6)
  br i1 %call, label %if.then, label %if.end

if.then:                                          ; preds = %entry
  %7 = load i64, ptr %size, align 8
  %8 = load ptr, ptr %pss.addr, align 8
  %page = getelementptr inbounds %struct.PageSearchStatus, ptr %8, i32 0, i32 3
  store i64 %7, ptr %page, align 8
  br label %return

if.end:                                           ; preds = %entry
  %9 = load ptr, ptr %pss.addr, align 8
  %host_page_sending = getelementptr inbounds %struct.PageSearchStatus, ptr %9, i32 0, i32 5
  %10 = load i8, ptr %host_page_sending, align 1
  %tobool = trunc i8 %10 to i1
  br i1 %tobool, label %if.then1, label %if.end6

if.then1:                                         ; preds = %if.end
  %11 = load ptr, ptr %pss.addr, align 8
  %host_page_end = getelementptr inbounds %struct.PageSearchStatus, ptr %11, i32 0, i32 7
  %12 = load i64, ptr %host_page_end, align 8
  %tobool2 = icmp ne i64 %12, 0
  br i1 %tobool2, label %if.then3, label %if.else

if.then3:                                         ; preds = %if.then1
  br label %if.end4

if.else:                                          ; preds = %if.then1
  call void @__assert_fail(ptr noundef @.str.43, ptr noundef @.str, i32 noundef 711, ptr noundef @__PRETTY_FUNCTION__.pss_find_next_dirty) #14
  unreachable

if.end4:                                          ; preds = %if.then3
  %13 = load i64, ptr %size, align 8
  store i64 %13, ptr %_a28, align 8
  %14 = load ptr, ptr %pss.addr, align 8
  %host_page_end5 = getelementptr inbounds %struct.PageSearchStatus, ptr %14, i32 0, i32 7
  %15 = load i64, ptr %host_page_end5, align 8
  store i64 %15, ptr %_b29, align 8
  %16 = load i64, ptr %_a28, align 8
  %17 = load i64, ptr %_b29, align 8
  %cmp = icmp ult i64 %16, %17
  br i1 %cmp, label %cond.true, label %cond.false

cond.true:                                        ; preds = %if.end4
  %18 = load i64, ptr %_a28, align 8
  br label %cond.end

cond.false:                                       ; preds = %if.end4
  %19 = load i64, ptr %_b29, align 8
  br label %cond.end

cond.end:                                         ; preds = %cond.false, %cond.true
  %cond = phi i64 [ %18, %cond.true ], [ %19, %cond.false ]
  store i64 %cond, ptr %tmp, align 8
  %20 = load i64, ptr %tmp, align 8
  store i64 %20, ptr %size, align 8
  br label %if.end6

if.end6:                                          ; preds = %cond.end, %if.end
  %21 = load ptr, ptr %bitmap, align 8
  %22 = load i64, ptr %size, align 8
  %23 = load ptr, ptr %pss.addr, align 8
  %page7 = getelementptr inbounds %struct.PageSearchStatus, ptr %23, i32 0, i32 3
  %24 = load i64, ptr %page7, align 8
  %call8 = call i64 @find_next_bit(ptr noundef %21, i64 noundef %22, i64 noundef %24)
  %25 = load ptr, ptr %pss.addr, align 8
  %page9 = getelementptr inbounds %struct.PageSearchStatus, ptr %25, i32 0, i32 3
  store i64 %call8, ptr %page9, align 8
  br label %return

return:                                           ; preds = %if.end6, %if.then
  ret void
}