; Function Attrs: nounwind sspstrong uwtable
define internal fastcc void @pss_find_next_dirty(ptr noundef captures(none) %pss) unnamed_addr #0 {
entry:
  %block = getelementptr inbounds nuw i8, ptr %pss, i64 16
  %0 = load ptr, ptr %block, align 8
  %used_length = getelementptr inbounds nuw i8, ptr %0, i64 48
  %1 = load i64, ptr %used_length, align 8
  %shr = lshr i64 %1, 12
  %bmap = getelementptr inbounds nuw i8, ptr %0, i64 384
  %2 = load ptr, ptr %bmap, align 8
  %call.i = tail call zeroext i1 @qemu_ram_is_migratable(ptr noundef %0) #18
  br i1 %call.i, label %lor.rhs.i, label %if.then

lor.rhs.i:                                        ; preds = %entry
  %call1.i = tail call zeroext i1 @migrate_ignore_shared() #18
  br i1 %call1.i, label %land.lhs.true.i, label %if.end

land.lhs.true.i:                                  ; preds = %lor.rhs.i
  %call2.i = tail call zeroext i1 @qemu_ram_is_shared(ptr noundef nonnull %0) #18
  br i1 %call2.i, label %migrate_ram_is_ignored.exit, label %if.end

migrate_ram_is_ignored.exit:                      ; preds = %land.lhs.true.i
  %call3.i = tail call zeroext i1 @qemu_ram_is_named_file(ptr noundef nonnull %0) #18
  br i1 %call3.i, label %if.then, label %if.end

if.then:                                          ; preds = %entry, %migrate_ram_is_ignored.exit
  %page = getelementptr inbounds nuw i8, ptr %pss, i64 24
  store i64 %shr, ptr %page, align 8
  br label %return

if.end:                                           ; preds = %lor.rhs.i, %land.lhs.true.i, %migrate_ram_is_ignored.exit
  %host_page_sending = getelementptr inbounds nuw i8, ptr %pss, i64 33
  %3 = load i8, ptr %host_page_sending, align 1
  %tobool = trunc i8 %3 to i1
  br i1 %tobool, label %if.then1, label %if.end6

if.then1:                                         ; preds = %if.end
  %host_page_end = getelementptr inbounds nuw i8, ptr %pss, i64 48
  %4 = load i64, ptr %host_page_end, align 8
  %tobool2.not = icmp eq i64 %4, 0
  br i1 %tobool2.not, label %if.else, label %if.end4

if.else:                                          ; preds = %if.then1
  tail call void @__assert_fail(ptr noundef nonnull @.str.43, ptr noundef nonnull @.str, i32 noundef 711, ptr noundef nonnull @__PRETTY_FUNCTION__.pss_find_next_dirty) #19
  unreachable

if.end4:                                          ; preds = %if.then1
  %cond = tail call i64 @llvm.umin.i64(i64 %shr, i64 %4)
  br label %if.end6

if.end6:                                          ; preds = %if.end4, %if.end
  %size.0 = phi i64 [ %cond, %if.end4 ], [ %shr, %if.end ]
  %page7 = getelementptr inbounds nuw i8, ptr %pss, i64 24
  %5 = load i64, ptr %page7, align 8
  %call8 = tail call i64 @find_next_bit(ptr noundef %2, i64 noundef %size.0, i64 noundef %5) #18
  store i64 %call8, ptr %page7, align 8
  br label %return

return:                                           ; preds = %if.end6, %if.then
  ret void
}